(dp0
S'upperColor'
p1
cnumpy.core.multiarray
_reconstruct
p2
(cnumpy
ndarray
p3
(I0
tp4
S'b'
p5
tp6
Rp7
(I1
(I3
tp8
cnumpy
dtype
p9
(S'i8'
p10
I0
I1
tp11
Rp12
(I3
S'<'
p13
NNNI-1
I-1
I0
tp14
bI00
S'I\x00\x00\x00\x00\x00\x00\x00\xb4\x00\x00\x00\x00\x00\x00\x00\xc0\x00\x00\x00\x00\x00\x00\x00'
p15
tp16
bsS'pixelToMetersRatio'
p17
F0.02089766606822262
sS'lowerColor'
p18
g2
(g3
(I0
tp19
g5
tp20
Rp21
(I1
(I3
tp22
g12
I00
S'\x00\x00\x00\x00\x00\x00\x00\x00P\x00\x00\x00\x00\x00\x00\x00\\\x00\x00\x00\x00\x00\x00\x00'
p23
tp24
bsS'edges'
p25
(lp26
(I59
I0
tp27
a(I616
I50
tp28
asS'radius'
p29
I57
sS'tableDimensions'
p30
ccopy_reg
_reconstructor
p31
(cVisionUtils.TableDimensions
TableDimensions
p32
c__builtin__
object
p33
Ntp34
Rp35
(dp36
S'sides'
p37
(lp38
F1.0
aF2.0
aI0
aI0
asbs.