(dp0
S'upperColor'
p1
cnumpy.core.multiarray
_reconstruct
p2
(cnumpy
ndarray
p3
(I0
tp4
S'b'
p5
tp6
Rp7
(I1
(I3
tp8
cnumpy
dtype
p9
(S'i8'
p10
I0
I1
tp11
Rp12
(I3
S'<'
p13
NNNI-1
I-1
I0
tp14
bI00
S'\xc2\x00\x00\x00\x00\x00\x00\x00\xc2\x00\x00\x00\x00\x00\x00\x00\xbf\x00\x00\x00\x00\x00\x00\x00'
p15
tp16
bsS'pixelToMetersRatio'
p17
F0.0
sS'lowerColor'
p18
g2
(g3
(I0
tp19
g5
tp20
Rp21
(I1
(I3
tp22
g12
I00
S'^\x00\x00\x00\x00\x00\x00\x00^\x00\x00\x00\x00\x00\x00\x00[\x00\x00\x00\x00\x00\x00\x00'
p23
tp24
bsS'edges'
p25
(lp26
(I157
I204
tp27
a(I411
I257
tp28
a(I137
I469
tp29
a(I382
I538
tp30
asS'radius'
p31
I30
sS'tableDimensions'
p32
ccopy_reg
_reconstructor
p33
(cVisionUtils.TableDimensions
TableDimensions
p34
c__builtin__
object
p35
Ntp36
Rp37
(dp38
S'sides'
p39
(lp40
F0.0
aF0.0
aF0.0
aF0.0
asbs.