(dp0
S'upperColor'
p1
cnumpy.core.multiarray
_reconstruct
p2
(cnumpy
ndarray
p3
(I0
tp4
S'b'
p5
tp6
Rp7
(I1
(I3
tp8
cnumpy
dtype
p9
(S'i8'
p10
I0
I1
tp11
Rp12
(I3
S'<'
p13
NNNI-1
I-1
I0
tp14
bI00
S'\xe8\x00\x00\x00\x00\x00\x00\x00\x95\x00\x00\x00\x00\x00\x00\x00L\x00\x00\x00\x00\x00\x00\x00'
p15
tp16
bsS'pixelToMetersRatio'
p17
F0.0007466555064659766
sS'lowerColor'
p18
g2
(g3
(I0
tp19
g5
tp20
Rp21
(I1
(I3
tp22
g12
I00
S'\x84\x00\x00\x00\x00\x00\x00\x001\x00\x00\x00\x00\x00\x00\x00\x00\x00\x00\x00\x00\x00\x00\x00'
p23
tp24
bsS'edges'
p25
(lp26
(I154
I184
tp27
a(I465
I182
tp28
a(I469
I548
tp29
a(I163
I545
tp30
asS'radius'
p31
I42
sS'tableDimensions'
p32
ccopy_reg
_reconstructor
p33
(cVisionUtils.TableDimensions
TableDimensions
p34
c__builtin__
object
p35
Ntp36
Rp37
(dp38
S'sides'
p39
(lp40
F0.24
aF0.26
aF0.24
aF0.26
asbs.